EXPORTS
    _Z14read_from_fileRNSt7__cxx1112basic_stringIcSt11char_traitsIcESaIcEEEPKc @1
    _Z18find_fuzzy_by_nameSt6vectorIN3fsm13FuzzyVariableESaIS1_EENSt7__cxx1112basic_stringIcSt11char_traitsIcESaIcEEE @2
    _Z18isWhiteSpaceStringNSt7__cxx1112basic_stringIcSt11char_traitsIcESaIcEEE @3
    _Z20get_trapezoid_centerfff @4
    _Z8nextLineSt6vectorINSt7__cxx1112basic_stringIcSt11char_traitsIcESaIcEEESaIS5_EERjb @5
    _ZGVZNKSt8__detail11_AnyMatcherINSt7__cxx1112regex_traitsIcEELb0ELb0ELb0EEclEcE5__nul @6 DATA
    _ZGVZNKSt8__detail11_AnyMatcherINSt7__cxx1112regex_traitsIcEELb0ELb0ELb1EEclEcE5__nul @7 DATA
    _ZGVZNKSt8__detail11_AnyMatcherINSt7__cxx1112regex_traitsIcEELb0ELb1ELb0EEclEcE5__nul @8 DATA
    _ZGVZNKSt8__detail11_AnyMatcherINSt7__cxx1112regex_traitsIcEELb0ELb1ELb1EEclEcE5__nul @9 DATA
    _ZN3fsm11Defuzzyfier12strfyResultsB5cxx11Ev @10
    _ZN3fsm11Defuzzyfier9defuzzyfyESt3mapINSt7__cxx1112basic_stringIcSt11char_traitsIcESaIcEEEfSt4lessIS7_ESaISt4pairIKS7_fEEE @11
    _ZN3fsm11DefuzzyfierC1Ev @12
    _ZN3fsm11DefuzzyfierC2Ev @13
    _ZN3fsm11DefuzzyfierD0Ev @14
    _ZN3fsm11DefuzzyfierD1Ev @15
    _ZN3fsm11DefuzzyfierD2Ev @16
    _ZN3fsm11FuzzySystem11applyValuesESt3mapINSt7__cxx1112basic_stringIcSt11char_traitsIcESaIcEEEfSt4lessIS7_ESaISt4pairIKS7_fEEE @17
    _ZN3fsm11FuzzySystem12strfyResultsB5cxx11Ev @18
    _ZN3fsm11FuzzySystem13applySettingsENS_8SettingsE @19
    _ZN3fsm11FuzzySystem14run_from_stdinEv @20
    _ZN3fsm11FuzzySystem20initSettingsFromFileEPKc @21
    _ZN3fsm11FuzzySystem27checkKnowledgebaseIntegrityENS_13KnowledgeBaseE @22
    _ZN3fsm11FuzzySystem3runESt3mapINSt7__cxx1112basic_stringIcSt11char_traitsIcESaIcEEEfSt4lessIS7_ESaISt4pairIKS7_fEEE @23
    _ZN3fsm11FuzzySystem3runESt6vectorIfSaIfEE @24
    _ZN3fsm11FuzzySystem3runEv @25
    _ZN3fsm11FuzzySystem4initEv @26
    _ZN3fsm11FuzzySystemC1Ev @27
    _ZN3fsm11FuzzySystemC2Ev @28
    _ZN3fsm11FuzzySystemD0Ev @29
    _ZN3fsm11FuzzySystemD1Ev @30
    _ZN3fsm11FuzzySystemD2Ev @31
    _ZN3fsm11console_logENSt7__cxx1112basic_stringIcSt11char_traitsIcESaIcEEE @32
    _ZN3fsm13FuzzyVariable12getSetByNameENSt7__cxx1112basic_stringIcSt11char_traitsIcESaIcEEE @33
    _ZN3fsm13FuzzyVariable14calculateFuzzyB5cxx11Ef @34
    _ZN3fsm13FuzzyVariable6hasSetENSt7__cxx1112basic_stringIcSt11char_traitsIcESaIcEEE @35
    _ZN3fsm13FuzzyVariable7getMinXEv @36
    _ZN3fsm13FuzzyVariable8toStringB5cxx11Ev @37
    _ZN3fsm13FuzzyVariableC1ENSt7__cxx1112basic_stringIcSt11char_traitsIcESaIcEEESt6vectorINS_8FuzzySetESaIS8_EE @38
    _ZN3fsm13FuzzyVariableC1Ev @39
    _ZN3fsm13FuzzyVariableC2ENSt7__cxx1112basic_stringIcSt11char_traitsIcESaIcEEESt6vectorINS_8FuzzySetESaIS8_EE @40
    _ZN3fsm13FuzzyVariableC2Ev @41
    _ZN3fsm13FuzzyVariableD1Ev @42
    _ZN3fsm13FuzzyVariableD2Ev @43
    _ZN3fsm13FuzzyVariableaSERKS0_ @44
    _ZN3fsm13console_debugENSt7__cxx1112basic_stringIcSt11char_traitsIcESaIcEEE @45
    _ZN3fsm13console_writeENSt7__cxx1112basic_stringIcSt11char_traitsIcESaIcEEE @46
    _ZN3fsm13get_log_levelEv @47
    _ZN3fsm13set_log_levelEj @48
    _ZN3fsm15InferenceEngine12strfyResultsB5cxx11Ev @49
    _ZN3fsm15InferenceEngine5inferESt6vectorISt4pairINSt7__cxx1112basic_stringIcSt11char_traitsIcESaIcEEESt3mapIS8_fSt4lessIS8_ESaIS2_IKS8_fEEEESaISG_EE @50
    _ZN3fsm15InferenceEngineC1Ev @51
    _ZN3fsm15InferenceEngineC2Ev @52
    _ZN3fsm15InferenceEngineD0Ev @53
    _ZN3fsm15InferenceEngineD1Ev @54
    _ZN3fsm15InferenceEngineD2Ev @55
    _ZN3fsm23init_settings_from_fileERNS_8SettingsEPKc @56
    _ZN3fsm4Rule13countOperandsENSt7__cxx1112basic_stringIcSt11char_traitsIcESaIcEEE @57
    _ZN3fsm4Rule15checkConventionENSt7__cxx1112basic_stringIcSt11char_traitsIcESaIcEEE @58
    _ZN3fsm4Rule15parseConsequentENSt7__cxx1112basic_stringIcSt11char_traitsIcESaIcEEE @59
    _ZN3fsm4Rule16parseAntecedentsENSt7__cxx1112basic_stringIcSt11char_traitsIcESaIcEEES6_i @60
    _ZN3fsm4RuleC1ENSt7__cxx1112basic_stringIcSt11char_traitsIcESaIcEEE @61
    _ZN3fsm4RuleC1Ev @62
    _ZN3fsm4RuleC2ENSt7__cxx1112basic_stringIcSt11char_traitsIcESaIcEEE @63
    _ZN3fsm4RuleC2Ev @64
    _ZN3fsm4RuleD0Ev @65
    _ZN3fsm4RuleD1Ev @66
    _ZN3fsm4RuleD2Ev @67
    _ZN3fsm8FuzzySet10membershipEf @68
    _ZN3fsm8FuzzySet17invert_membershipEf @69
    _ZN3fsm8FuzzySet4initENSt7__cxx1112basic_stringIcSt11char_traitsIcESaIcEEEffff @70
    _ZN3fsm8FuzzySet8toStringB5cxx11Ev @71
    _ZN3fsm8FuzzySetC1ENSt7__cxx1112basic_stringIcSt11char_traitsIcESaIcEEE @72
    _ZN3fsm8FuzzySetC1ENSt7__cxx1112basic_stringIcSt11char_traitsIcESaIcEEEffff @73
    _ZN3fsm8FuzzySetC1Ev @74
    _ZN3fsm8FuzzySetC2ENSt7__cxx1112basic_stringIcSt11char_traitsIcESaIcEEE @75
    _ZN3fsm8FuzzySetC2ENSt7__cxx1112basic_stringIcSt11char_traitsIcESaIcEEEffff @76
    _ZN3fsm8FuzzySetC2Ev @77
    _ZN3fsm8FuzzySetaSEOS0_ @78
    _ZN3fsm8RulebaseC1ENSt7__cxx1112basic_stringIcSt11char_traitsIcESaIcEEESt6vectorINS_4RuleESaIS8_EE @79
    _ZN3fsm8RulebaseC1ENSt7__cxx1112basic_stringIcSt11char_traitsIcESaIcEEESt6vectorIS6_SaIS6_EE @80
    _ZN3fsm8RulebaseC1Ev @81
    _ZN3fsm8RulebaseC2ENSt7__cxx1112basic_stringIcSt11char_traitsIcESaIcEEESt6vectorINS_4RuleESaIS8_EE @82
    _ZN3fsm8RulebaseC2ENSt7__cxx1112basic_stringIcSt11char_traitsIcESaIcEEESt6vectorIS6_SaIS6_EE @83
    _ZN3fsm8RulebaseC2Ev @84
    _ZN3fsm8RulebaseD0Ev @85
    _ZN3fsm8RulebaseD1Ev @86
    _ZN3fsm8RulebaseD2Ev @87
    _ZN3fsm8RulebaseaSERKS0_ @88
    _ZN3fsm9Fuzzyfier12strfyResultsB5cxx11Ev @89
    _ZN3fsm9Fuzzyfier7fuzzyfyESt6vectorIfSaIfEE @90
    _ZN3fsm9FuzzyfierC1Ev @91
    _ZN3fsm9FuzzyfierC2Ev @92
    _ZN9__gnu_cxx12__to_xstringINSt7__cxx1112basic_stringIcSt11char_traitsIcESaIcEEEcEET_PFiPT0_jPKS8_PcEjSB_z @93
    _ZNK3fsm8FuzzySetgtERKS0_ @94
    _ZNK3fsm8FuzzySetltERKS0_ @95
    _ZNKSt5ctypeIcE2isEtc @96
    _ZNKSt5ctypeIcE6narrowEcc @97
    _ZNKSt6bitsetILj256EE15_Unchecked_testEj @98
    _ZNKSt6vectorIN3fsm13FuzzyVariableESaIS1_EE14_M_range_checkEj @99
    _ZNKSt6vectorINSt7__cxx1112basic_stringIcSt11char_traitsIcESaIcEEESaIS5_EE12_M_check_lenEjPKc @100
    _ZNKSt7__cxx1112regex_traitsIcE16lookup_classnameIPKcEENS1_10_RegexMaskET_S6_b @101
    _ZNKSt7__cxx1112regex_traitsIcE17transform_primaryIPKcEENS_12basic_stringIcSt11char_traitsIcESaIcEEET_SA_ @102
    _ZNKSt7__cxx1112regex_traitsIcE18lookup_collatenameIPKcEENS_12basic_stringIcSt11char_traitsIcESaIcEEET_SA_ @103
    _ZNKSt7__cxx1112regex_traitsIcE7isctypeEcNS1_10_RegexMaskE @104
    _ZNKSt7__cxx1112regex_traitsIcE9transformIN9__gnu_cxx17__normal_iteratorIPKcNS_12basic_stringIcSt11char_traitsIcESaIcEEEEEEESB_T_SD_ @105
    _ZNKSt7__cxx1112regex_traitsIcE9transformIN9__gnu_cxx17__normal_iteratorIPcNS_12basic_stringIcSt11char_traitsIcESaIcEEEEEEESA_T_SC_ @106
    _ZNKSt7__cxx1113match_resultsIN9__gnu_cxx17__normal_iteratorIPKcNS_12basic_stringIcSt11char_traitsIcESaIcEEEEESaINS_9sub_matchISA_EEEE4sizeEv @107
    _ZNKSt7__cxx1113match_resultsIN9__gnu_cxx17__normal_iteratorIPKcNS_12basic_stringIcSt11char_traitsIcESaIcEEEEESaINS_9sub_matchISA_EEEEixEj @108
    _ZNKSt7__cxx1114regex_iteratorIN9__gnu_cxx17__normal_iteratorIPKcNS_12basic_stringIcSt11char_traitsIcESaIcEEEEEcNS_12regex_traitsIcEEEeqERKSD_ @109
    _ZNKSt7__cxx119sub_matchIN9__gnu_cxx17__normal_iteratorIPKcNS_12basic_stringIcSt11char_traitsIcESaIcEEEEEE3strEv @110
    _ZNKSt8_Rb_treeIlSt4pairIKllESt10_Select1stIS2_ESt4lessIlESaIS2_EE4findERS1_ @111
    _ZNKSt8__detail15_BracketMatcherINSt7__cxx1112regex_traitsIcEELb0ELb0EE8_M_applyEcSt17integral_constantIbLb0EE @112
    _ZNKSt8__detail15_BracketMatcherINSt7__cxx1112regex_traitsIcEELb0ELb1EE8_M_applyEcSt17integral_constantIbLb0EE @113
    _ZNKSt8__detail15_BracketMatcherINSt7__cxx1112regex_traitsIcEELb1ELb0EE8_M_applyEcSt17integral_constantIbLb0EE @114
    _ZNKSt8__detail15_BracketMatcherINSt7__cxx1112regex_traitsIcEELb1ELb1EE8_M_applyEcSt17integral_constantIbLb0EE @115
    _ZNKSt8__detail16_RegexTranslatorINSt7__cxx1112regex_traitsIcEELb0ELb1EE17_M_transform_implEcSt17integral_constantIbLb1EE @116
    _ZNKSt8__detail16_RegexTranslatorINSt7__cxx1112regex_traitsIcEELb1ELb0EE12_M_translateEc @117
    _ZNKSt8__detail16_RegexTranslatorINSt7__cxx1112regex_traitsIcEELb1ELb1EE12_M_translateEc @118
    _ZNKSt8__detail16_RegexTranslatorINSt7__cxx1112regex_traitsIcEELb1ELb1EE17_M_transform_implEcSt17integral_constantIbLb1EE @119
    _ZNKSt8__detail9_ExecutorIN9__gnu_cxx17__normal_iteratorIPKcNSt7__cxx1112basic_stringIcSt11char_traitsIcESaIcEEEEESaINS5_9sub_matchISB_EEENS5_12regex_traitsIcEELb1EE10_M_is_wordEc @120
    _ZNKSt8__detail9_ExecutorIN9__gnu_cxx17__normal_iteratorIPKcNSt7__cxx1112basic_stringIcSt11char_traitsIcESaIcEEEEESaINS5_9sub_matchISB_EEENS5_12regex_traitsIcEELb1EE16_M_word_boundaryEv @121
    _ZNSt11_Deque_baseINSt8__detail9_StateSeqINSt7__cxx1112regex_traitsIcEEEESaIS5_EE17_M_initialize_mapEj @122
    _ZNSt11_Deque_baseIlSaIlEE17_M_initialize_mapEj @123
    _ZNSt11__copy_moveILb0ELb0ESt26random_access_iterator_tagE8__copy_mIPN3fsm4RuleES5_EET0_T_S7_S6_ @124
    _ZNSt11__copy_moveILb0ELb0ESt26random_access_iterator_tagE8__copy_mIPN3fsm8FuzzySetES5_EET0_T_S7_S6_ @125
    _ZNSt11__copy_moveILb0ELb0ESt26random_access_iterator_tagE8__copy_mIPNSt7__cxx119sub_matchIN9__gnu_cxx17__normal_iteratorIPKcNS3_12basic_stringIcSt11char_traitsIcESaIcEEEEEEESG_EET0_T_SI_SH_ @126
    _ZNSt11__copy_moveILb0ELb0ESt26random_access_iterator_tagE8__copy_mIPSt4pairINSt7__cxx1112basic_stringIcSt11char_traitsIcESaIcEEESt3mapIS9_fSt4lessIS9_ESaIS3_IKS9_fEEEESI_EET0_T_SK_SJ_ @127
    _ZNSt11__copy_moveILb0ELb0ESt26random_access_iterator_tagE8__copy_mIPSt4pairINSt7__cxx1112basic_stringIcSt11char_traitsIcESaIcEEESt6vectorIS9_SaIS9_EEESE_EET0_T_SG_SF_ @128
    _ZNSt11__copy_moveILb0ELb1ESt26random_access_iterator_tagE8__copy_mIcEEPT_PKS3_S6_S4_ @129
    _ZNSt11__copy_moveILb1ELb1ESt26random_access_iterator_tagE8__copy_mIfEEPT_PKS3_S6_S4_ @130
    _ZNSt12_Destroy_auxILb0EE9__destroyIPN3fsm13FuzzyVariableEEEvT_S5_ @131
    _ZNSt12_Destroy_auxILb0EE9__destroyIPN3fsm4RuleEEEvT_S5_ @132
    _ZNSt12_Destroy_auxILb0EE9__destroyIPN3fsm8FuzzySetEEEvT_S5_ @133
    _ZNSt12_Destroy_auxILb0EE9__destroyIPNSt7__cxx1112basic_stringIcSt11char_traitsIcESaIcEEEEEvT_S9_ @134
    _ZNSt12_Destroy_auxILb0EE9__destroyIPSt4pairINSt7__cxx1112basic_stringIcSt11char_traitsIcESaIcEEESt3mapIS8_fSt4lessIS8_ESaIS2_IKS8_fEEEEEEvT_SI_ @135
    _ZNSt12_Destroy_auxILb0EE9__destroyIPSt4pairINSt7__cxx1112basic_stringIcSt11char_traitsIcESaIcEEESt6vectorIS8_SaIS8_EEEEEvT_SE_ @136
    _ZNSt12_Vector_baseINSt7__cxx119sub_matchIN9__gnu_cxx17__normal_iteratorIPKcNS0_12basic_stringIcSt11char_traitsIcESaIcEEEEEEESaISC_EE17_M_create_storageEj @137
    _ZNSt12_Vector_baseISt4pairINSt7__cxx1112basic_stringIcSt11char_traitsIcESaIcEEES6_ESaIS7_EE12_Vector_impl12_M_swap_dataERSA_ @138
    _ZNSt14_Function_base13_Base_managerINSt8__detail11_AnyMatcherINSt7__cxx1112regex_traitsIcEELb0ELb0ELb0EEEE10_M_managerERSt9_Any_dataRKS8_St18_Manager_operation @139
    _ZNSt14_Function_base13_Base_managerINSt8__detail11_AnyMatcherINSt7__cxx1112regex_traitsIcEELb0ELb0ELb1EEEE10_M_managerERSt9_Any_dataRKS8_St18_Manager_operation @140
    _ZNSt14_Function_base13_Base_managerINSt8__detail11_AnyMatcherINSt7__cxx1112regex_traitsIcEELb0ELb1ELb0EEEE10_M_managerERSt9_Any_dataRKS8_St18_Manager_operation @141
    _ZNSt14_Function_base13_Base_managerINSt8__detail11_AnyMatcherINSt7__cxx1112regex_traitsIcEELb0ELb1ELb1EEEE10_M_managerERSt9_Any_dataRKS8_St18_Manager_operation @142
    _ZNSt14_Function_base13_Base_managerINSt8__detail11_AnyMatcherINSt7__cxx1112regex_traitsIcEELb1ELb0ELb0EEEE10_M_managerERSt9_Any_dataRKS8_St18_Manager_operation @143
    _ZNSt14_Function_base13_Base_managerINSt8__detail11_AnyMatcherINSt7__cxx1112regex_traitsIcEELb1ELb0ELb1EEEE10_M_managerERSt9_Any_dataRKS8_St18_Manager_operation @144
    _ZNSt14_Function_base13_Base_managerINSt8__detail11_AnyMatcherINSt7__cxx1112regex_traitsIcEELb1ELb1ELb0EEEE10_M_managerERSt9_Any_dataRKS8_St18_Manager_operation @145
    _ZNSt14_Function_base13_Base_managerINSt8__detail11_AnyMatcherINSt7__cxx1112regex_traitsIcEELb1ELb1ELb1EEEE10_M_managerERSt9_Any_dataRKS8_St18_Manager_operation @146
    _ZNSt14_Function_base13_Base_managerINSt8__detail12_CharMatcherINSt7__cxx1112regex_traitsIcEELb0ELb0EEEE10_M_managerERSt9_Any_dataRKS8_St18_Manager_operation @147
    _ZNSt14_Function_base13_Base_managerINSt8__detail12_CharMatcherINSt7__cxx1112regex_traitsIcEELb0ELb1EEEE10_M_managerERSt9_Any_dataRKS8_St18_Manager_operation @148
    _ZNSt14_Function_base13_Base_managerINSt8__detail12_CharMatcherINSt7__cxx1112regex_traitsIcEELb1ELb0EEEE10_M_managerERSt9_Any_dataRKS8_St18_Manager_operation @149
    _ZNSt14_Function_base13_Base_managerINSt8__detail12_CharMatcherINSt7__cxx1112regex_traitsIcEELb1ELb1EEEE10_M_managerERSt9_Any_dataRKS8_St18_Manager_operation @150
    _ZNSt14_Function_base13_Base_managerINSt8__detail15_BracketMatcherINSt7__cxx1112regex_traitsIcEELb0ELb0EEEE10_M_managerERSt9_Any_dataRKS8_St18_Manager_operation @151
    _ZNSt14_Function_base13_Base_managerINSt8__detail15_BracketMatcherINSt7__cxx1112regex_traitsIcEELb0ELb1EEEE10_M_managerERSt9_Any_dataRKS8_St18_Manager_operation @152
    _ZNSt14_Function_base13_Base_managerINSt8__detail15_BracketMatcherINSt7__cxx1112regex_traitsIcEELb1ELb0EEEE10_M_managerERSt9_Any_dataRKS8_St18_Manager_operation @153
    _ZNSt14_Function_base13_Base_managerINSt8__detail15_BracketMatcherINSt7__cxx1112regex_traitsIcEELb1ELb1EEEE10_M_managerERSt9_Any_dataRKS8_St18_Manager_operation @154
    _ZNSt15_Deque_iteratorIlRlPlEmmEv @155
    _ZNSt16_Sp_counted_baseILN9__gnu_cxx12_Lock_policyE2EE10_M_destroyEv @156
    _ZNSt17_Function_handlerIFbcENSt8__detail11_AnyMatcherINSt7__cxx1112regex_traitsIcEELb0ELb0ELb0EEEE9_M_invokeERKSt9_Any_dataOc @157
    _ZNSt17_Function_handlerIFbcENSt8__detail11_AnyMatcherINSt7__cxx1112regex_traitsIcEELb0ELb0ELb1EEEE9_M_invokeERKSt9_Any_dataOc @158
    _ZNSt17_Function_handlerIFbcENSt8__detail11_AnyMatcherINSt7__cxx1112regex_traitsIcEELb0ELb1ELb0EEEE9_M_invokeERKSt9_Any_dataOc @159
    _ZNSt17_Function_handlerIFbcENSt8__detail11_AnyMatcherINSt7__cxx1112regex_traitsIcEELb0ELb1ELb1EEEE9_M_invokeERKSt9_Any_dataOc @160
    _ZNSt17_Function_handlerIFbcENSt8__detail11_AnyMatcherINSt7__cxx1112regex_traitsIcEELb1ELb0ELb0EEEE9_M_invokeERKSt9_Any_dataOc @161
    _ZNSt17_Function_handlerIFbcENSt8__detail11_AnyMatcherINSt7__cxx1112regex_traitsIcEELb1ELb0ELb1EEEE9_M_invokeERKSt9_Any_dataOc @162
    _ZNSt17_Function_handlerIFbcENSt8__detail11_AnyMatcherINSt7__cxx1112regex_traitsIcEELb1ELb1ELb0EEEE9_M_invokeERKSt9_Any_dataOc @163
    _ZNSt17_Function_handlerIFbcENSt8__detail11_AnyMatcherINSt7__cxx1112regex_traitsIcEELb1ELb1ELb1EEEE9_M_invokeERKSt9_Any_dataOc @164
    _ZNSt17_Function_handlerIFbcENSt8__detail12_CharMatcherINSt7__cxx1112regex_traitsIcEELb0ELb0EEEE9_M_invokeERKSt9_Any_dataOc @165
    _ZNSt17_Function_handlerIFbcENSt8__detail12_CharMatcherINSt7__cxx1112regex_traitsIcEELb0ELb1EEEE9_M_invokeERKSt9_Any_dataOc @166
    _ZNSt17_Function_handlerIFbcENSt8__detail12_CharMatcherINSt7__cxx1112regex_traitsIcEELb1ELb0EEEE9_M_invokeERKSt9_Any_dataOc @167
    _ZNSt17_Function_handlerIFbcENSt8__detail12_CharMatcherINSt7__cxx1112regex_traitsIcEELb1ELb1EEEE9_M_invokeERKSt9_Any_dataOc @168
    _ZNSt17_Function_handlerIFbcENSt8__detail15_BracketMatcherINSt7__cxx1112regex_traitsIcEELb0ELb0EEEE9_M_invokeERKSt9_Any_dataOc @169
    _ZNSt17_Function_handlerIFbcENSt8__detail15_BracketMatcherINSt7__cxx1112regex_traitsIcEELb0ELb1EEEE9_M_invokeERKSt9_Any_dataOc @170
    _ZNSt17_Function_handlerIFbcENSt8__detail15_BracketMatcherINSt7__cxx1112regex_traitsIcEELb1ELb0EEEE9_M_invokeERKSt9_Any_dataOc @171
    _ZNSt17_Function_handlerIFbcENSt8__detail15_BracketMatcherINSt7__cxx1112regex_traitsIcEELb1ELb1EEEE9_M_invokeERKSt9_Any_dataOc @172
    _ZNSt20__uninitialized_copyILb0EE13__uninit_copyIN9__gnu_cxx17__normal_iteratorIPKN3fsm13FuzzyVariableESt6vectorIS5_SaIS5_EEEEPS5_EET0_T_SE_SD_ @173
    _ZNSt20__uninitialized_copyILb0EE13__uninit_copyIN9__gnu_cxx17__normal_iteratorIPKN3fsm4RuleESt6vectorIS5_SaIS5_EEEEPS5_EET0_T_SE_SD_ @174
    _ZNSt20__uninitialized_copyILb0EE13__uninit_copyIN9__gnu_cxx17__normal_iteratorIPKN3fsm8FuzzySetESt6vectorIS5_SaIS5_EEEEPS5_EET0_T_SE_SD_ @175
    _ZNSt20__uninitialized_copyILb0EE13__uninit_copyIN9__gnu_cxx17__normal_iteratorIPKNSt7__cxx1112basic_stringIcSt11char_traitsIcESaIcEEESt6vectorIS9_SaIS9_EEEEPS9_EET0_T_SI_SH_ @176
    _ZNSt20__uninitialized_copyILb0EE13__uninit_copyIN9__gnu_cxx17__normal_iteratorIPKSt4pairINSt7__cxx1112basic_stringIcSt11char_traitsIcESaIcEEESt6vectorISA_SaISA_EEESB_ISE_SaISE_EEEEPSE_EET0_T_SM_SL_ @177
    _ZNSt20__uninitialized_copyILb0EE13__uninit_copyIPN3fsm13FuzzyVariableES4_EET0_T_S6_S5_ @178
    _ZNSt20__uninitialized_copyILb0EE13__uninit_copyIPN3fsm4RuleES4_EET0_T_S6_S5_ @179
    _ZNSt23_Sp_counted_ptr_inplaceINSt8__detail4_NFAINSt7__cxx1112regex_traitsIcEEEESaIS5_ELN9__gnu_cxx12_Lock_policyE2EE10_M_destroyEv @180
    _ZNSt23_Sp_counted_ptr_inplaceINSt8__detail4_NFAINSt7__cxx1112regex_traitsIcEEEESaIS5_ELN9__gnu_cxx12_Lock_policyE2EE10_M_disposeEv @181
    _ZNSt23_Sp_counted_ptr_inplaceINSt8__detail4_NFAINSt7__cxx1112regex_traitsIcEEEESaIS5_ELN9__gnu_cxx12_Lock_policyE2EE14_M_get_deleterERKSt9type_info @182
    _ZNSt23_Sp_counted_ptr_inplaceINSt8__detail4_NFAINSt7__cxx1112regex_traitsIcEEEESaIS5_ELN9__gnu_cxx12_Lock_policyE2EED0Ev @183
    _ZNSt23_Sp_counted_ptr_inplaceINSt8__detail4_NFAINSt7__cxx1112regex_traitsIcEEEESaIS5_ELN9__gnu_cxx12_Lock_policyE2EED1Ev @184
    _ZNSt27__uninitialized_default_n_1ILb0EE18__uninit_default_nIPNSt7__cxx119sub_matchIN9__gnu_cxx17__normal_iteratorIPKcNS2_12basic_stringIcSt11char_traitsIcESaIcEEEEEEEjEET_SG_T0_ @185
    _ZNSt3mapINSt7__cxx1112basic_stringIcSt11char_traitsIcESaIcEEES_IS5_fSt4lessIS5_ESaISt4pairIKS5_fEEES7_SaIS8_IS9_SC_EEEixERS9_ @186
    _ZNSt3mapINSt7__cxx1112basic_stringIcSt11char_traitsIcESaIcEEEfSt4lessIS5_ESaISt4pairIKS5_fEEEixERS9_ @187
    _ZNSt3mapIllSt4lessIlESaISt4pairIKllEEEixERS3_ @188
    _ZNSt5dequeINSt8__detail9_StateSeqINSt7__cxx1112regex_traitsIcEEEESaIS5_EE12emplace_backIJS5_EEEvDpOT_ @189
    _ZNSt5dequeINSt8__detail9_StateSeqINSt7__cxx1112regex_traitsIcEEEESaIS5_EE16_M_push_back_auxIJS5_EEEvDpOT_ @190
    _ZNSt5dequeINSt8__detail9_StateSeqINSt7__cxx1112regex_traitsIcEEEESaIS5_EE9push_backERKS5_ @191
    _ZNSt5dequeIlSaIlEE16_M_push_back_auxIJRKlEEEvDpOT_ @192
    _ZNSt5dequeIlSaIlEE8pop_backEv @193
    _ZNSt5dequeIlSaIlEE9push_backERKl @194
    _ZNSt6bitsetILj256EE9referenceaSEb @195
    _ZNSt6vectorIN3fsm13FuzzyVariableESaIS1_EE19_M_emplace_back_auxIJS1_EEEvDpOT_ @196
    _ZNSt6vectorIN3fsm13FuzzyVariableESaIS1_EEaSERKS3_ @197
    _ZNSt6vectorIN3fsm4RuleESaIS1_EE19_M_emplace_back_auxIJS1_EEEvDpOT_ @198
    _ZNSt6vectorIN3fsm4RuleESaIS1_EEaSERKS3_ @199
    _ZNSt6vectorIN3fsm8FuzzySetESaIS1_EE19_M_emplace_back_auxIJS1_EEEvDpOT_ @200
    _ZNSt6vectorIN3fsm8FuzzySetESaIS1_EEaSERKS3_ @201
    _ZNSt6vectorINSt7__cxx1112basic_stringIcSt11char_traitsIcESaIcEEESaIS5_EE12emplace_backIJS5_EEEvDpOT_ @202
    _ZNSt6vectorINSt7__cxx1112basic_stringIcSt11char_traitsIcESaIcEEESaIS5_EE19_M_emplace_back_auxIJRKS5_EEEvDpOT_ @203
    _ZNSt6vectorINSt7__cxx1112basic_stringIcSt11char_traitsIcESaIcEEESaIS5_EE19_M_emplace_back_auxIJS5_EEEvDpOT_ @204
    _ZNSt6vectorINSt7__cxx1112basic_stringIcSt11char_traitsIcESaIcEEESaIS5_EE9push_backERKS5_ @205
    _ZNSt6vectorINSt7__cxx1112basic_stringIcSt11char_traitsIcESaIcEEESaIS5_EEaSERKS7_ @206
    _ZNSt6vectorINSt7__cxx1112regex_traitsIcE10_RegexMaskESaIS3_EE19_M_emplace_back_auxIJRKS3_EEEvDpOT_ @207
    _ZNSt6vectorINSt7__cxx1112regex_traitsIcE10_RegexMaskESaIS3_EE9push_backERKS3_ @208
    _ZNSt6vectorINSt7__cxx119sub_matchIN9__gnu_cxx17__normal_iteratorIPKcNS0_12basic_stringIcSt11char_traitsIcESaIcEEEEEEESaISC_EE17_M_default_appendEj @209
    _ZNSt6vectorINSt7__cxx119sub_matchIN9__gnu_cxx17__normal_iteratorIPKcNS0_12basic_stringIcSt11char_traitsIcESaIcEEEEEEESaISC_EE6resizeEj @210
    _ZNSt6vectorINSt7__cxx119sub_matchIN9__gnu_cxx17__normal_iteratorIPKcNS0_12basic_stringIcSt11char_traitsIcESaIcEEEEEEESaISC_EEaSERKSE_ @211
    _ZNSt6vectorINSt8__detail6_StateINSt7__cxx1112regex_traitsIcEEEESaIS5_EE19_M_emplace_back_auxIJS5_EEEvDpOT_ @212
    _ZNSt6vectorISt4pairINSt7__cxx1112basic_stringIcSt11char_traitsIcESaIcEEES6_ESaIS7_EE12emplace_backIJS7_EEEvDpOT_ @213
    _ZNSt6vectorISt4pairINSt7__cxx1112basic_stringIcSt11char_traitsIcESaIcEEES6_ESaIS7_EE19_M_emplace_back_auxIJS7_EEEvDpOT_ @214
    _ZNSt6vectorISt4pairINSt7__cxx1112basic_stringIcSt11char_traitsIcESaIcEEES_IS6_SaIS6_EEESaIS9_EE19_M_emplace_back_auxIJS9_EEEvDpOT_ @215
    _ZNSt6vectorISt4pairINSt7__cxx1112basic_stringIcSt11char_traitsIcESaIcEEES_IS6_SaIS6_EEESaIS9_EEaSERKSB_ @216
    _ZNSt6vectorISt4pairINSt7__cxx1112basic_stringIcSt11char_traitsIcESaIcEEESt3mapIS6_fSt4lessIS6_ESaIS0_IKS6_fEEEESaISE_EE19_M_emplace_back_auxIJSE_EEEvDpOT_ @217
    _ZNSt6vectorISt4pairINSt7__cxx1112basic_stringIcSt11char_traitsIcESaIcEEESt3mapIS6_fSt4lessIS6_ESaIS0_IKS6_fEEEESaISE_EEaSERKSG_ @218
    _ZNSt6vectorISt4pairINSt7__cxx1112basic_stringIcSt11char_traitsIcESaIcEEEfESaIS7_EE12emplace_backIJS7_EEEvDpOT_ @219
    _ZNSt6vectorISt4pairINSt7__cxx1112basic_stringIcSt11char_traitsIcESaIcEEEfESaIS7_EE19_M_emplace_back_auxIJS7_EEEvDpOT_ @220
    _ZNSt6vectorISt4pairIccESaIS1_EE12emplace_backIJS1_EEEvDpOT_ @221
    _ZNSt6vectorISt4pairIccESaIS1_EE19_M_emplace_back_auxIJS1_EEEvDpOT_ @222
    _ZNSt6vectorIcSaIcEE12emplace_backIJcEEEvDpOT_ @223
    _ZNSt6vectorIcSaIcEE8_M_eraseEN9__gnu_cxx17__normal_iteratorIPcS1_EES5_ @224
    _ZNSt6vectorIfSaIfEE19_M_emplace_back_auxIJRKfEEEvDpOT_ @225
    _ZNSt6vectorIfSaIfEE19_M_emplace_back_auxIJfEEEvDpOT_ @226
    _ZNSt6vectorIfSaIfEE9push_backERKf @227
    _ZNSt6vectorIfSaIfEEaSERKS1_ @228
    _ZNSt6vectorIjSaIjEE19_M_emplace_back_auxIJRKjEEEvDpOT_ @229
    _ZNSt7__cxx1111basic_regexIcNS_12regex_traitsIcEEEaSEOS3_ @230
    _ZNSt7__cxx1113match_resultsIN9__gnu_cxx17__normal_iteratorIPKcNS_12basic_stringIcSt11char_traitsIcESaIcEEEEESaINS_9sub_matchISA_EEEE9_M_prefixEv @231
    _ZNSt7__cxx1113match_resultsIN9__gnu_cxx17__normal_iteratorIPKcNS_12basic_stringIcSt11char_traitsIcESaIcEEEEESaINS_9sub_matchISA_EEEEaSEOSE_ @232
    _ZNSt7__cxx1114regex_iteratorIN9__gnu_cxx17__normal_iteratorIPKcNS_12basic_stringIcSt11char_traitsIcESaIcEEEEEcNS_12regex_traitsIcEEEppEv @233
    _ZNSt7__cxx114stofERKNS_12basic_stringIcSt11char_traitsIcESaIcEEEPj @234
    _ZNSt7__cxx119to_stringEf @235
    _ZNSt8_Rb_treeINSt7__cxx1112basic_stringIcSt11char_traitsIcESaIcEEESt4pairIKS5_St3mapIS5_fSt4lessIS5_ESaIS6_IS7_fEEEESt10_Select1stISE_ESA_SaISE_EE22_M_emplace_hint_uniqueIJRKSt21piecewise_construct_tSt5tupleIJRS7_EESN_IJEEEEESt17_Rb_tree_iteratorISE_ESt23_Rb_tree_const_iteratorISE_EDpOT_ @236
    _ZNSt8_Rb_treeINSt7__cxx1112basic_stringIcSt11char_traitsIcESaIcEEESt4pairIKS5_St3mapIS5_fSt4lessIS5_ESaIS6_IS7_fEEEESt10_Select1stISE_ESA_SaISE_EE24_M_get_insert_unique_posERS7_ @237
    _ZNSt8_Rb_treeINSt7__cxx1112basic_stringIcSt11char_traitsIcESaIcEEESt4pairIKS5_St3mapIS5_fSt4lessIS5_ESaIS6_IS7_fEEEESt10_Select1stISE_ESA_SaISE_EE29_M_get_insert_hint_unique_posESt23_Rb_tree_const_iteratorISE_ERS7_ @238
    _ZNSt8_Rb_treeINSt7__cxx1112basic_stringIcSt11char_traitsIcESaIcEEESt4pairIKS5_St3mapIS5_fSt4lessIS5_ESaIS6_IS7_fEEEESt10_Select1stISE_ESA_SaISE_EE8_M_eraseEPSt13_Rb_tree_nodeISE_E @239
    _ZNSt8_Rb_treeINSt7__cxx1112basic_stringIcSt11char_traitsIcESaIcEEESt4pairIKS5_fESt10_Select1stIS8_ESt4lessIS5_ESaIS8_EE17_M_construct_nodeIJRKS8_EEEvPSt13_Rb_tree_nodeIS8_EDpOT_ @240
    _ZNSt8_Rb_treeINSt7__cxx1112basic_stringIcSt11char_traitsIcESaIcEEESt4pairIKS5_fESt10_Select1stIS8_ESt4lessIS5_ESaIS8_EE20_Reuse_or_alloc_nodeclIRKS8_EEPSt13_Rb_tree_nodeIS8_EOT_ @241
    _ZNSt8_Rb_treeINSt7__cxx1112basic_stringIcSt11char_traitsIcESaIcEEESt4pairIKS5_fESt10_Select1stIS8_ESt4lessIS5_ESaIS8_EE22_M_emplace_hint_uniqueIJRKSt21piecewise_construct_tSt5tupleIJRS7_EESJ_IJEEEEESt17_Rb_tree_iteratorIS8_ESt23_Rb_tree_const_iteratorIS8_EDpOT_ @242
    _ZNSt8_Rb_treeINSt7__cxx1112basic_stringIcSt11char_traitsIcESaIcEEESt4pairIKS5_fESt10_Select1stIS8_ESt4lessIS5_ESaIS8_EE24_M_get_insert_unique_posERS7_ @243
    _ZNSt8_Rb_treeINSt7__cxx1112basic_stringIcSt11char_traitsIcESaIcEEESt4pairIKS5_fESt10_Select1stIS8_ESt4lessIS5_ESaIS8_EE29_M_get_insert_hint_unique_posESt23_Rb_tree_const_iteratorIS8_ERS7_ @244
    _ZNSt8_Rb_treeINSt7__cxx1112basic_stringIcSt11char_traitsIcESaIcEEESt4pairIKS5_fESt10_Select1stIS8_ESt4lessIS5_ESaIS8_EE7_M_copyINSE_11_Alloc_nodeEEEPSt13_Rb_tree_nodeIS8_EPKSI_SJ_RT_ @245
    _ZNSt8_Rb_treeINSt7__cxx1112basic_stringIcSt11char_traitsIcESaIcEEESt4pairIKS5_fESt10_Select1stIS8_ESt4lessIS5_ESaIS8_EE7_M_copyINSE_20_Reuse_or_alloc_nodeEEEPSt13_Rb_tree_nodeIS8_EPKSI_SJ_RT_ @246
    _ZNSt8_Rb_treeINSt7__cxx1112basic_stringIcSt11char_traitsIcESaIcEEESt4pairIKS5_fESt10_Select1stIS8_ESt4lessIS5_ESaIS8_EE8_M_eraseEPSt13_Rb_tree_nodeIS8_E @247
    _ZNSt8_Rb_treeINSt7__cxx1112basic_stringIcSt11char_traitsIcESaIcEEESt4pairIKS5_fESt10_Select1stIS8_ESt4lessIS5_ESaIS8_EEaSERKSE_ @248
    _ZNSt8_Rb_treeIlSt4pairIKllESt10_Select1stIS2_ESt4lessIlESaIS2_EE24_M_get_insert_unique_posERS1_ @249
    _ZNSt8_Rb_treeIlSt4pairIKllESt10_Select1stIS2_ESt4lessIlESaIS2_EE29_M_get_insert_hint_unique_posESt23_Rb_tree_const_iteratorIS2_ERS1_ @250
    _ZNSt8_Rb_treeIlSt4pairIKllESt10_Select1stIS2_ESt4lessIlESaIS2_EE8_M_eraseEPSt13_Rb_tree_nodeIS2_E @251
    _ZNSt8__detail13__compile_nfaIPKcNSt7__cxx1112regex_traitsIcEEEENSt9enable_ifIXsrNS_27__is_contiguous_normal_iterIT_EE5valueESt10shared_ptrIKNS_4_NFAIT0_EEEE4typeES8_S8_RKNSC_11locale_typeENSt15regex_constants18syntax_option_typeE @252
    _ZNSt8__detail15_BracketMatcherINSt7__cxx1112regex_traitsIcEELb0ELb0EE22_M_add_character_classERKNS1_12basic_stringIcSt11char_traitsIcESaIcEEEb @253
    _ZNSt8__detail15_BracketMatcherINSt7__cxx1112regex_traitsIcEELb0ELb0EE24_M_add_equivalence_classERKNS1_12basic_stringIcSt11char_traitsIcESaIcEEE @254
    _ZNSt8__detail15_BracketMatcherINSt7__cxx1112regex_traitsIcEELb0ELb0EE8_M_readyEv @255
    _ZNSt8__detail15_BracketMatcherINSt7__cxx1112regex_traitsIcEELb0ELb1EE13_M_make_rangeEcc @256
    _ZNSt8__detail15_BracketMatcherINSt7__cxx1112regex_traitsIcEELb0ELb1EE22_M_add_character_classERKNS1_12basic_stringIcSt11char_traitsIcESaIcEEEb @257
    _ZNSt8__detail15_BracketMatcherINSt7__cxx1112regex_traitsIcEELb0ELb1EE24_M_add_equivalence_classERKNS1_12basic_stringIcSt11char_traitsIcESaIcEEE @258
    _ZNSt8__detail15_BracketMatcherINSt7__cxx1112regex_traitsIcEELb0ELb1EE8_M_readyEv @259
    _ZNSt8__detail15_BracketMatcherINSt7__cxx1112regex_traitsIcEELb1ELb0EE11_M_add_charEc @260
    _ZNSt8__detail15_BracketMatcherINSt7__cxx1112regex_traitsIcEELb1ELb0EE22_M_add_character_classERKNS1_12basic_stringIcSt11char_traitsIcESaIcEEEb @261
    _ZNSt8__detail15_BracketMatcherINSt7__cxx1112regex_traitsIcEELb1ELb0EE24_M_add_equivalence_classERKNS1_12basic_stringIcSt11char_traitsIcESaIcEEE @262
    _ZNSt8__detail15_BracketMatcherINSt7__cxx1112regex_traitsIcEELb1ELb0EE8_M_readyEv @263
    _ZNSt8__detail15_BracketMatcherINSt7__cxx1112regex_traitsIcEELb1ELb1EE11_M_add_charEc @264
    _ZNSt8__detail15_BracketMatcherINSt7__cxx1112regex_traitsIcEELb1ELb1EE13_M_make_rangeEcc @265
    _ZNSt8__detail15_BracketMatcherINSt7__cxx1112regex_traitsIcEELb1ELb1EE22_M_add_character_classERKNS1_12basic_stringIcSt11char_traitsIcESaIcEEEb @266
    _ZNSt8__detail15_BracketMatcherINSt7__cxx1112regex_traitsIcEELb1ELb1EE24_M_add_equivalence_classERKNS1_12basic_stringIcSt11char_traitsIcESaIcEEE @267
    _ZNSt8__detail15_BracketMatcherINSt7__cxx1112regex_traitsIcEELb1ELb1EE8_M_readyEv @268
    _ZNSt8__detail17__regex_algo_implIN9__gnu_cxx17__normal_iteratorIPKcNSt7__cxx1112basic_stringIcSt11char_traitsIcESaIcEEEEESaINS5_9sub_matchISB_EEEcNS5_12regex_traitsIcEELNS_20_RegexExecutorPolicyE0ELb0EEEbT_SI_RNS5_13match_resultsISI_T0_EERKNS5_11basic_regexIT1_T2_EENSt15regex_constants15match_flag_typeE @269
    _ZNSt8__detail17__regex_algo_implIN9__gnu_cxx17__normal_iteratorIPKcNSt7__cxx1112basic_stringIcSt11char_traitsIcESaIcEEEEESaINS5_9sub_matchISB_EEEcNS5_12regex_traitsIcEELNS_20_RegexExecutorPolicyE0ELb1EEEbT_SI_RNS5_13match_resultsISI_T0_EERKNS5_11basic_regexIT1_T2_EENSt15regex_constants15match_flag_typeE @270
    _ZNSt8__detail4_NFAINSt7__cxx1112regex_traitsIcEEE15_M_insert_dummyEv @271
    _ZNSt8__detail4_NFAINSt7__cxx1112regex_traitsIcEEE15_M_insert_stateENS_6_StateIS3_EE @272
    _ZNSt8__detail4_NFAINSt7__cxx1112regex_traitsIcEEE16_M_insert_acceptEv @273
    _ZNSt8__detail4_NFAINSt7__cxx1112regex_traitsIcEEE16_M_insert_repeatEllb @274
    _ZNSt8__detail4_NFAINSt7__cxx1112regex_traitsIcEEE17_M_insert_matcherESt8functionIFbcEE @275
    _ZNSt8__detail4_NFAINSt7__cxx1112regex_traitsIcEEE18_M_eliminate_dummyEv @276
    _ZNSt8__detail4_NFAINSt7__cxx1112regex_traitsIcEEE21_M_insert_subexpr_endEv @277
    _ZNSt8__detail4_NFAINSt7__cxx1112regex_traitsIcEEE23_M_insert_subexpr_beginEv @278
    _ZNSt8__detail8_ScannerIcE10_M_advanceEv @279
    _ZNSt8__detail8_ScannerIcE12_M_eat_classEc @280
    _ZNSt8__detail8_ScannerIcE14_M_scan_normalEv @281
    _ZNSt8__detail8_ScannerIcE16_M_scan_in_braceEv @282
    _ZNSt8__detail8_ScannerIcE17_M_eat_escape_awkEv @283
    _ZNSt8__detail8_ScannerIcE18_M_eat_escape_ecmaEv @284
    _ZNSt8__detail8_ScannerIcE18_M_scan_in_bracketEv @285
    _ZNSt8__detail8_ScannerIcE19_M_eat_escape_posixEv @286
    _ZNSt8__detail9_CompilerINSt7__cxx1112regex_traitsIcEEE11_M_try_charEv @287
    _ZNSt8__detail9_CompilerINSt7__cxx1112regex_traitsIcEEE12_M_assertionEv @288
    _ZNSt8__detail9_CompilerINSt7__cxx1112regex_traitsIcEEE13_M_quantifierEv @289
    _ZNSt8__detail9_CompilerINSt7__cxx1112regex_traitsIcEEE14_M_alternativeEv @290
    _ZNSt8__detail9_CompilerINSt7__cxx1112regex_traitsIcEEE14_M_disjunctionEv @291
    _ZNSt8__detail9_CompilerINSt7__cxx1112regex_traitsIcEEE14_M_match_tokenENS_12_ScannerBase7_TokenTE @292
    _ZNSt8__detail9_CompilerINSt7__cxx1112regex_traitsIcEEE16_M_cur_int_valueEi @293
    _ZNSt8__detail9_CompilerINSt7__cxx1112regex_traitsIcEEE18_M_expression_termILb0ELb0EEEvRSt4pairIbcERNS_15_BracketMatcherIS3_XT_EXT0_EEE @294
    _ZNSt8__detail9_CompilerINSt7__cxx1112regex_traitsIcEEE18_M_expression_termILb0ELb1EEEvRSt4pairIbcERNS_15_BracketMatcherIS3_XT_EXT0_EEE @295
    _ZNSt8__detail9_CompilerINSt7__cxx1112regex_traitsIcEEE18_M_expression_termILb1ELb0EEEvRSt4pairIbcERNS_15_BracketMatcherIS3_XT_EXT0_EEE @296
    _ZNSt8__detail9_CompilerINSt7__cxx1112regex_traitsIcEEE18_M_expression_termILb1ELb1EEEvRSt4pairIbcERNS_15_BracketMatcherIS3_XT_EXT0_EEE @297
    _ZNSt8__detail9_CompilerINSt7__cxx1112regex_traitsIcEEE21_M_bracket_expressionEv @298
    _ZNSt8__detail9_CompilerINSt7__cxx1112regex_traitsIcEEE22_M_insert_char_matcherILb1ELb0EEEvv @299
    _ZNSt8__detail9_CompilerINSt7__cxx1112regex_traitsIcEEE22_M_insert_char_matcherILb1ELb1EEEvv @300
    _ZNSt8__detail9_CompilerINSt7__cxx1112regex_traitsIcEEE25_M_insert_bracket_matcherILb0ELb0EEEvb @301
    _ZNSt8__detail9_CompilerINSt7__cxx1112regex_traitsIcEEE25_M_insert_bracket_matcherILb0ELb1EEEvb @302
    _ZNSt8__detail9_CompilerINSt7__cxx1112regex_traitsIcEEE25_M_insert_bracket_matcherILb1ELb0EEEvb @303
    _ZNSt8__detail9_CompilerINSt7__cxx1112regex_traitsIcEEE25_M_insert_bracket_matcherILb1ELb1EEEvb @304
    _ZNSt8__detail9_CompilerINSt7__cxx1112regex_traitsIcEEE33_M_insert_character_class_matcherILb0ELb0EEEvv @305
    _ZNSt8__detail9_CompilerINSt7__cxx1112regex_traitsIcEEE33_M_insert_character_class_matcherILb0ELb1EEEvv @306
    _ZNSt8__detail9_CompilerINSt7__cxx1112regex_traitsIcEEE33_M_insert_character_class_matcherILb1ELb0EEEvv @307
    _ZNSt8__detail9_CompilerINSt7__cxx1112regex_traitsIcEEE33_M_insert_character_class_matcherILb1ELb1EEEvv @308
    _ZNSt8__detail9_CompilerINSt7__cxx1112regex_traitsIcEEE6_M_popEv @309
    _ZNSt8__detail9_CompilerINSt7__cxx1112regex_traitsIcEEE7_M_atomEv @310
    _ZNSt8__detail9_ExecutorIN9__gnu_cxx17__normal_iteratorIPKcNSt7__cxx1112basic_stringIcSt11char_traitsIcESaIcEEEEESaINS5_9sub_matchISB_EEENS5_12regex_traitsIcEELb1EE12_M_lookaheadENS_6_StateISG_EE @311
    _ZNSt8__detail9_ExecutorIN9__gnu_cxx17__normal_iteratorIPKcNSt7__cxx1112basic_stringIcSt11char_traitsIcESaIcEEEEESaINS5_9sub_matchISB_EEENS5_12regex_traitsIcEELb1EE16_M_rep_once_moreENSH_11_Match_modeEl @312
    _ZNSt8__detail9_ExecutorIN9__gnu_cxx17__normal_iteratorIPKcNSt7__cxx1112basic_stringIcSt11char_traitsIcESaIcEEEEESaINS5_9sub_matchISB_EEENS5_12regex_traitsIcEELb1EE6_M_dfsENSH_11_Match_modeEl @313
    _ZNSt8__detail9_StateSeqINSt7__cxx1112regex_traitsIcEEE8_M_cloneEv @314
    _ZNSt8__detail9_StateSeqINSt7__cxx1112regex_traitsIcEEE9_M_appendERKS4_ @315
    _ZNSt8__detail9_StateSeqINSt7__cxx1112regex_traitsIcEEE9_M_appendEl @316
    _ZNSt8functionIFbcEE4swapERS1_ @317
    _ZSt12regex_searchISt11char_traitsIcESaIcESaINSt7__cxx119sub_matchIN9__gnu_cxx17__normal_iteratorIPKcNS3_12basic_stringIcS1_S2_EEEEEEEcNS3_12regex_traitsIcEEEbRKNS9_IT2_T_T0_EERNS3_13match_resultsINSJ_14const_iteratorET1_EERKNS3_11basic_regexISG_T3_EENSt15regex_constants15match_flag_typeE @318
    _ZSt13__adjust_heapIN9__gnu_cxx17__normal_iteratorIPN3fsm8FuzzySetESt6vectorIS3_SaIS3_EEEEiS3_NS0_5__ops15_Iter_less_iterEEvT_T0_SC_T1_T2_ @319
    _ZSt13__adjust_heapIN9__gnu_cxx17__normal_iteratorIPcSt6vectorIcSaIcEEEEicNS0_5__ops15_Iter_less_iterEEvT_T0_SA_T1_T2_ @320
    _ZSt13binary_searchIN9__gnu_cxx17__normal_iteratorIPKcSt6vectorIcSaIcEEEEcEbT_S8_RKT0_ @321
    _ZSt13copy_backwardIPPlS1_ET0_T_S3_S2_ @322
    _ZSt16__insertion_sortIN9__gnu_cxx17__normal_iteratorIPN3fsm8FuzzySetESt6vectorIS3_SaIS3_EEEENS0_5__ops15_Iter_less_iterEEvT_SB_T0_ @323
    _ZSt3hexRSt8ios_base @324
    _ZSt3octRSt8ios_base @325
    _ZSt4copyIPPlS1_ET0_T_S3_S2_ @326
    _ZSt4swapIN3fsm8FuzzySetEEvRT_S3_ @327
    _ZSt4swapISt15_Deque_iteratorINSt8__detail9_StateSeqINSt7__cxx1112regex_traitsIcEEEERS6_PS6_EEvRT_SB_ @328
    _ZSt4swapISt15_Deque_iteratorIlRlPlEEvRT_S5_ @329
    _ZSt4swapISt6localeEvRT_S2_ @330
    _ZSt8_DestroyIN3fsm4RuleEEvPT_ @331
    _ZSt8distanceINSt7__cxx1114regex_iteratorIN9__gnu_cxx17__normal_iteratorIPKcNS0_12basic_stringIcSt11char_traitsIcESaIcEEEEEcNS0_12regex_traitsIcEEEEENSt15iterator_traitsIT_E15difference_typeESG_SG_ @332
    _ZSt9__find_ifIN9__gnu_cxx17__normal_iteratorIPKNSt7__cxx1112basic_stringIcSt11char_traitsIcESaIcEEESt6vectorIS7_SaIS7_EEEENS0_5__ops16_Iter_equals_valIS8_EEET_SH_SH_T0_St26random_access_iterator_tag @333
    _ZSteqIcEN9__gnu_cxx11__enable_ifIXsrSt9__is_charIT_E7__valueEbE6__typeERKNSt7__cxx1112basic_stringIS3_St11char_traitsIS3_ESaIS3_EEESE_ @334
    _ZStltIcSt11char_traitsIcESaIcEEbRKNSt7__cxx1112basic_stringIT_T0_T1_EESA_ @335
    _ZStplIcSt11char_traitsIcESaIcEENSt7__cxx1112basic_stringIT_T0_T1_EEOS8_S9_ @336
    _ZStplIcSt11char_traitsIcESaIcEENSt7__cxx1112basic_stringIT_T0_T1_EEPKS5_RKS8_ @337
    _ZTIN3fsm11DefuzzyfierE @338 DATA
    _ZTIN3fsm11FuzzySystemE @339 DATA
    _ZTIN3fsm15InferenceEngineE @340 DATA
    _ZTIN3fsm4RuleE @341 DATA
    _ZTIN3fsm8RulebaseE @342 DATA
    _ZTINSt6locale5facetE @343 DATA
    _ZTINSt8__detail11_AnyMatcherINSt7__cxx1112regex_traitsIcEELb0ELb0ELb0EEE @344 DATA
    _ZTINSt8__detail11_AnyMatcherINSt7__cxx1112regex_traitsIcEELb0ELb0ELb1EEE @345 DATA
    _ZTINSt8__detail11_AnyMatcherINSt7__cxx1112regex_traitsIcEELb0ELb1ELb0EEE @346 DATA
    _ZTINSt8__detail11_AnyMatcherINSt7__cxx1112regex_traitsIcEELb0ELb1ELb1EEE @347 DATA
    _ZTINSt8__detail11_AnyMatcherINSt7__cxx1112regex_traitsIcEELb1ELb0ELb0EEE @348 DATA
    _ZTINSt8__detail11_AnyMatcherINSt7__cxx1112regex_traitsIcEELb1ELb0ELb1EEE @349 DATA
    _ZTINSt8__detail11_AnyMatcherINSt7__cxx1112regex_traitsIcEELb1ELb1ELb0EEE @350 DATA
    _ZTINSt8__detail11_AnyMatcherINSt7__cxx1112regex_traitsIcEELb1ELb1ELb1EEE @351 DATA
    _ZTINSt8__detail12_CharMatcherINSt7__cxx1112regex_traitsIcEELb0ELb0EEE @352 DATA
    _ZTINSt8__detail12_CharMatcherINSt7__cxx1112regex_traitsIcEELb0ELb1EEE @353 DATA
    _ZTINSt8__detail12_CharMatcherINSt7__cxx1112regex_traitsIcEELb1ELb0EEE @354 DATA
    _ZTINSt8__detail12_CharMatcherINSt7__cxx1112regex_traitsIcEELb1ELb1EEE @355 DATA
    _ZTINSt8__detail15_BracketMatcherINSt7__cxx1112regex_traitsIcEELb0ELb0EEE @356 DATA
    _ZTINSt8__detail15_BracketMatcherINSt7__cxx1112regex_traitsIcEELb0ELb1EEE @357 DATA
    _ZTINSt8__detail15_BracketMatcherINSt7__cxx1112regex_traitsIcEELb1ELb0EEE @358 DATA
    _ZTINSt8__detail15_BracketMatcherINSt7__cxx1112regex_traitsIcEELb1ELb1EEE @359 DATA
    _ZTIPSt13runtime_error @360 DATA
    _ZTISt10ctype_base @361 DATA
    _ZTISt11_Mutex_baseILN9__gnu_cxx12_Lock_policyE2EE @362 DATA
    _ZTISt11logic_error @363 DATA
    _ZTISt13runtime_error @364 DATA
    _ZTISt16_Sp_counted_baseILN9__gnu_cxx12_Lock_policyE2EE @365 DATA
    _ZTISt16invalid_argument @366 DATA
    _ZTISt19_Sp_make_shared_tag @367 DATA
    _ZTISt23_Sp_counted_ptr_inplaceINSt8__detail4_NFAINSt7__cxx1112regex_traitsIcEEEESaIS5_ELN9__gnu_cxx12_Lock_policyE2EE @368 DATA
    _ZTISt5ctypeIcE @369 DATA
    _ZTISt9exception @370 DATA
    _ZTSN3fsm11DefuzzyfierE @371 DATA
    _ZTSN3fsm11FuzzySystemE @372 DATA
    _ZTSN3fsm15InferenceEngineE @373 DATA
    _ZTSN3fsm4RuleE @374 DATA
    _ZTSN3fsm8RulebaseE @375 DATA
    _ZTSNSt6locale5facetE @376 DATA
    _ZTSNSt8__detail11_AnyMatcherINSt7__cxx1112regex_traitsIcEELb0ELb0ELb0EEE @377 DATA
    _ZTSNSt8__detail11_AnyMatcherINSt7__cxx1112regex_traitsIcEELb0ELb0ELb1EEE @378 DATA
    _ZTSNSt8__detail11_AnyMatcherINSt7__cxx1112regex_traitsIcEELb0ELb1ELb0EEE @379 DATA
    _ZTSNSt8__detail11_AnyMatcherINSt7__cxx1112regex_traitsIcEELb0ELb1ELb1EEE @380 DATA
    _ZTSNSt8__detail11_AnyMatcherINSt7__cxx1112regex_traitsIcEELb1ELb0ELb0EEE @381 DATA
    _ZTSNSt8__detail11_AnyMatcherINSt7__cxx1112regex_traitsIcEELb1ELb0ELb1EEE @382 DATA
    _ZTSNSt8__detail11_AnyMatcherINSt7__cxx1112regex_traitsIcEELb1ELb1ELb0EEE @383 DATA
    _ZTSNSt8__detail11_AnyMatcherINSt7__cxx1112regex_traitsIcEELb1ELb1ELb1EEE @384 DATA
    _ZTSNSt8__detail12_CharMatcherINSt7__cxx1112regex_traitsIcEELb0ELb0EEE @385 DATA
    _ZTSNSt8__detail12_CharMatcherINSt7__cxx1112regex_traitsIcEELb0ELb1EEE @386 DATA
    _ZTSNSt8__detail12_CharMatcherINSt7__cxx1112regex_traitsIcEELb1ELb0EEE @387 DATA
    _ZTSNSt8__detail12_CharMatcherINSt7__cxx1112regex_traitsIcEELb1ELb1EEE @388 DATA
    _ZTSNSt8__detail15_BracketMatcherINSt7__cxx1112regex_traitsIcEELb0ELb0EEE @389 DATA
    _ZTSNSt8__detail15_BracketMatcherINSt7__cxx1112regex_traitsIcEELb0ELb1EEE @390 DATA
    _ZTSNSt8__detail15_BracketMatcherINSt7__cxx1112regex_traitsIcEELb1ELb0EEE @391 DATA
    _ZTSNSt8__detail15_BracketMatcherINSt7__cxx1112regex_traitsIcEELb1ELb1EEE @392 DATA
    _ZTSPSt13runtime_error @393 DATA
    _ZTSSt10ctype_base @394 DATA
    _ZTSSt11_Mutex_baseILN9__gnu_cxx12_Lock_policyE2EE @395 DATA
    _ZTSSt11logic_error @396 DATA
    _ZTSSt13runtime_error @397 DATA
    _ZTSSt16_Sp_counted_baseILN9__gnu_cxx12_Lock_policyE2EE @398 DATA
    _ZTSSt16invalid_argument @399 DATA
    _ZTSSt19_Sp_make_shared_tag @400 DATA
    _ZTSSt23_Sp_counted_ptr_inplaceINSt8__detail4_NFAINSt7__cxx1112regex_traitsIcEEEESaIS5_ELN9__gnu_cxx12_Lock_policyE2EE @401 DATA
    _ZTSSt5ctypeIcE @402 DATA
    _ZTSSt9exception @403 DATA
    _ZTVN3fsm11DefuzzyfierE @404 DATA
    _ZTVN3fsm11FuzzySystemE @405 DATA
    _ZTVN3fsm15InferenceEngineE @406 DATA
    _ZTVN3fsm4RuleE @407 DATA
    _ZTVN3fsm8RulebaseE @408 DATA
    _ZTVSt23_Sp_counted_ptr_inplaceINSt8__detail4_NFAINSt7__cxx1112regex_traitsIcEEEESaIS5_ELN9__gnu_cxx12_Lock_policyE2EE @409 DATA
    _ZZNKSt7__cxx1112regex_traitsIcE16lookup_classnameIPKcEENS1_10_RegexMaskET_S6_bE12__classnames @410 DATA
    _ZZNKSt7__cxx1112regex_traitsIcE18lookup_collatenameIPKcEENS_12basic_stringIcSt11char_traitsIcESaIcEEET_SA_E14__collatenames @411 DATA
    _ZZNKSt8__detail11_AnyMatcherINSt7__cxx1112regex_traitsIcEELb0ELb0ELb0EEclEcE5__nul @412 DATA
    _ZZNKSt8__detail11_AnyMatcherINSt7__cxx1112regex_traitsIcEELb0ELb0ELb1EEclEcE5__nul @413 DATA
    _ZZNKSt8__detail11_AnyMatcherINSt7__cxx1112regex_traitsIcEELb0ELb1ELb0EEclEcE5__nul @414 DATA
    _ZZNKSt8__detail11_AnyMatcherINSt7__cxx1112regex_traitsIcEELb0ELb1ELb1EEclEcE5__nul @415 DATA
    _ZZNKSt8__detail9_ExecutorIN9__gnu_cxx17__normal_iteratorIPKcNSt7__cxx1112basic_stringIcSt11char_traitsIcESaIcEEEEESaINS5_9sub_matchISB_EEENS5_12regex_traitsIcEELb1EE10_M_is_wordEcE3__s @416 DATA
    _ZZNSt8__detail9_CompilerINSt7__cxx1112regex_traitsIcEEE13_M_quantifierEvENKUlvE_clEv @417
